target datalayout = "e-m:e-p270:32:32-p271:32:32-p272:64:64-i64:64-i128:128-f80:128-n8:16:32:64-S128"
target triple = "x86_64-pc-linux-gnu"

%struct.XLogRecData = type { ptr, ptr, i32 }
%struct.registered_buffer = type { i8, i8, %struct.RelFileLocator, i32, i32, ptr, i32, ptr, ptr, [2 x %struct.XLogRecData], [8196 x i8] }
%struct.RelFileLocator = type { i32, i32, i32 }
%struct.PageHeaderData = type { %struct.PageXLogRecPtr, i16, i16, i16, i16, i16, i16, i32, [0 x %struct.ItemIdData] }
%struct.PageXLogRecPtr = type { i32, i32 }
%struct.ItemIdData = type { i32 }

@.str.1 = private unnamed_addr constant [13 x i8] c"xloginsert.c\00", align 1
@.str.3 = private unnamed_addr constant [55 x i8] c"maximum number of WAL record block references exceeded\00", align 1
@__func__.XLogEnsureRecordSpace = private unnamed_addr constant [22 x i8] c"XLogEnsureRecordSpace\00", align 1
@max_registered_buffers = internal global i32 0, align 4
@registered_buffers = internal global ptr null, align 8
@max_rdatas = internal global i32 0, align 4
@rdatas = internal global ptr null, align 8
@max_registered_block_id = internal global i32 0, align 4
@.str.4 = private unnamed_addr constant [28 x i8] c"too many registered buffers\00", align 1
@__func__.XLogRegisterBlock = private unnamed_addr constant [18 x i8] c"XLogRegisterBlock\00", align 1

; Function Attrs: inlinehint nounwind uwtable
define internal void @PageSetLSN(ptr noundef %0, i64 noundef %1) #5 {
  %3 = alloca ptr, align 8
  %4 = alloca i64, align 8
  store ptr %0, ptr %3, align 8
  store i64 %1, ptr %4, align 8
  %5 = load i64, ptr %4, align 8
  %6 = lshr i64 %5, 32
  %7 = trunc i64 %6 to i32
  %8 = load ptr, ptr %3, align 8
  %9 = getelementptr inbounds nuw %struct.PageHeaderData, ptr %8, i32 0, i32 0
  %10 = getelementptr inbounds nuw %struct.PageXLogRecPtr, ptr %9, i32 0, i32 0
  store i32 %7, ptr %10, align 4
  %11 = load i64, ptr %4, align 8
  %12 = trunc i64 %11 to i32
  %13 = load ptr, ptr %3, align 8
  %14 = getelementptr inbounds nuw %struct.PageHeaderData, ptr %13, i32 0, i32 0
  %15 = getelementptr inbounds nuw %struct.PageXLogRecPtr, ptr %14, i32 0, i32 1
  store i32 %12, ptr %15, align 4
  ret void
}

; Function Attrs: inlinehint nounwind uwtable
define internal zeroext i1 @PageIsNew(ptr noundef %0) #5 {
  %2 = alloca ptr, align 8
  store ptr %0, ptr %2, align 8
  %3 = load ptr, ptr %2, align 8
  %4 = getelementptr inbounds nuw %struct.PageHeaderData, ptr %3, i32 0, i32 4
  %5 = load i16, ptr %4, align 2
  %6 = zext i16 %5 to i32
  %7 = icmp eq i32 %6, 0
  ret i1 %7
}

; Function Attrs: nounwind uwtable
define dso_local void @XLogRegisterBlock(i8 noundef zeroext %0, ptr noundef %1, i32 noundef %2, i32 noundef %3, ptr noundef %4, i8 noundef zeroext %5) #0 {
  %7 = alloca i8, align 1
  %8 = alloca ptr, align 8
  %9 = alloca i32, align 4
  %10 = alloca i32, align 4
  %11 = alloca ptr, align 8
  %12 = alloca i8, align 1
  %13 = alloca ptr, align 8
  store i8 %0, ptr %7, align 1
  store ptr %1, ptr %8, align 8
  store i32 %2, ptr %9, align 4
  store i32 %3, ptr %10, align 4
  store ptr %4, ptr %11, align 8
  store i8 %5, ptr %12, align 1
  call void @llvm.lifetime.start.p0(i64 8, ptr %13) #9
  %14 = load i8, ptr %7, align 1
  %15 = zext i8 %14 to i32
  %16 = load i32, ptr @max_registered_block_id, align 4
  %17 = icmp sge i32 %15, %16
  br i1 %17, label %18, label %22

18:                                               ; preds = %6
  %19 = load i8, ptr %7, align 1
  %20 = zext i8 %19 to i32
  %21 = add i32 %20, 1
  store i32 %21, ptr @max_registered_block_id, align 4
  br label %22

22:                                               ; preds = %18, %6
  %23 = load i8, ptr %7, align 1
  %24 = zext i8 %23 to i32
  %25 = load i32, ptr @max_registered_buffers, align 4
  %26 = icmp sge i32 %24, %25
  br i1 %26, label %27, label %38

27:                                               ; preds = %22
  br label %28

28:                                               ; preds = %27
  br i1 true, label %29, label %31

29:                                               ; preds = %28
  %30 = call zeroext i1 @errstart_cold(i32 noundef 21, ptr noundef null) #8
  br i1 %30, label %33, label %35

31:                                               ; preds = %28
  %32 = call zeroext i1 @errstart(i32 noundef 21, ptr noundef null)
  br i1 %32, label %33, label %35

33:                                               ; preds = %31, %29
  %34 = call i32 (ptr, ...) @errmsg_internal(ptr noundef @.str.4)
  call void @errfinish(ptr noundef @.str.1, i32 noundef 320, ptr noundef @__func__.XLogRegisterBlock)
  br label %35

35:                                               ; preds = %33, %31, %29
  unreachable

36:                                               ; No predecessors!
  br label %37

37:                                               ; preds = %36
  br label %38

38:                                               ; preds = %37, %22
  %39 = load ptr, ptr @registered_buffers, align 8
  %40 = load i8, ptr %7, align 1
  %41 = zext i8 %40 to i64
  %42 = getelementptr inbounds nuw %struct.registered_buffer, ptr %39, i64 %41
  store ptr %42, ptr %13, align 8
  %43 = load ptr, ptr %13, align 8
  %44 = getelementptr inbounds nuw %struct.registered_buffer, ptr %43, i32 0, i32 2
  %45 = load ptr, ptr %8, align 8
  call void @llvm.memcpy.p0.p0.i64(ptr align 4 %44, ptr align 4 %45, i64 12, i1 false)
  %46 = load i32, ptr %9, align 4
  %47 = load ptr, ptr %13, align 8
  %48 = getelementptr inbounds nuw %struct.registered_buffer, ptr %47, i32 0, i32 3
  store i32 %46, ptr %48, align 8
  %49 = load i32, ptr %10, align 4
  %50 = load ptr, ptr %13, align 8
  %51 = getelementptr inbounds nuw %struct.registered_buffer, ptr %50, i32 0, i32 4
  store i32 %49, ptr %51, align 4
  %52 = load ptr, ptr %11, align 8
  %53 = load ptr, ptr %13, align 8
  %54 = getelementptr inbounds nuw %struct.registered_buffer, ptr %53, i32 0, i32 5
  store ptr %52, ptr %54, align 8
  %55 = load i8, ptr %12, align 1
  %56 = load ptr, ptr %13, align 8
  %57 = getelementptr inbounds nuw %struct.registered_buffer, ptr %56, i32 0, i32 1
  store i8 %55, ptr %57, align 1
  %58 = load ptr, ptr %13, align 8
  %59 = getelementptr inbounds nuw %struct.registered_buffer, ptr %58, i32 0, i32 7
  %60 = load ptr, ptr %13, align 8
  %61 = getelementptr inbounds nuw %struct.registered_buffer, ptr %60, i32 0, i32 8
  store ptr %59, ptr %61, align 8
  %62 = load ptr, ptr %13, align 8
  %63 = getelementptr inbounds nuw %struct.registered_buffer, ptr %62, i32 0, i32 6
  store i32 0, ptr %63, align 8
  %64 = load ptr, ptr %13, align 8
  %65 = getelementptr inbounds nuw %struct.registered_buffer, ptr %64, i32 0, i32 0
  store i8 1, ptr %65, align 8
  call void @llvm.lifetime.end.p0(i64 8, ptr %13) #9
  ret void
}

; Function Attrs: nounwind uwtable
define dso_local void @XLogEnsureRecordSpace(i32 noundef %0, i32 noundef %1) #0 {
  %3 = alloca i32, align 4
  %4 = alloca i32, align 4
  %5 = alloca i32, align 4
  %6 = alloca ptr, align 8
  %7 = alloca i32, align 4
  %8 = alloca i64, align 8
  %9 = alloca ptr, align 8
  %10 = alloca ptr, align 8
  store i32 %0, ptr %3, align 4
  store i32 %1, ptr %4, align 4
  call void @llvm.lifetime.start.p0(i64 4, ptr %5) #9
  %11 = load i32, ptr %3, align 4
  %12 = icmp slt i32 %11, 4
  br i1 %12, label %13, label %14

13:                                               ; preds = %2
  store i32 4, ptr %3, align 4
  br label %14

14:                                               ; preds = %13, %2
  %15 = load i32, ptr %4, align 4
  %16 = icmp slt i32 %15, 20
  br i1 %16, label %17, label %18

17:                                               ; preds = %14
  store i32 20, ptr %4, align 4
  br label %18

18:                                               ; preds = %17, %14
  %19 = load i32, ptr %3, align 4
  %20 = icmp sgt i32 %19, 32
  br i1 %20, label %21, label %32

21:                                               ; preds = %18
  br label %22

22:                                               ; preds = %21
  br i1 true, label %23, label %25

23:                                               ; preds = %22
  %24 = call zeroext i1 @errstart_cold(i32 noundef 21, ptr noundef null) #8
  br i1 %24, label %27, label %29

25:                                               ; preds = %22
  %26 = call zeroext i1 @errstart(i32 noundef 21, ptr noundef null)
  br i1 %26, label %27, label %29

27:                                               ; preds = %25, %23
  %28 = call i32 (ptr, ...) @errmsg_internal(ptr noundef @.str.3)
  call void @errfinish(ptr noundef @.str.1, i32 noundef 194, ptr noundef @__func__.XLogEnsureRecordSpace)
  br label %29

29:                                               ; preds = %27, %25, %23
  unreachable

30:                                               ; No predecessors!
  br label %31

31:                                               ; preds = %30
  br label %32

32:                                               ; preds = %31, %18
  %33 = load i32, ptr %3, align 4
  %34 = add i32 %33, 1
  store i32 %34, ptr %5, align 4
  %35 = load i32, ptr %5, align 4
  %36 = load i32, ptr @max_registered_buffers, align 4
  %37 = icmp sgt i32 %35, %36
  br i1 %37, label %38, label %90

38:                                               ; preds = %32
  %39 = load ptr, ptr @registered_buffers, align 8
  %40 = load i32, ptr %5, align 4
  %41 = sext i32 %40 to i64
  %42 = mul i64 8304, %41
  %43 = call ptr @repalloc(ptr noundef %39, i64 noundef %42)
  store ptr %43, ptr @registered_buffers, align 8
  br label %44

44:                                               ; preds = %38
  call void @llvm.lifetime.start.p0(i64 8, ptr %6) #9
  %45 = load ptr, ptr @registered_buffers, align 8
  %46 = load i32, ptr @max_registered_buffers, align 4
  %47 = sext i32 %46 to i64
  %48 = getelementptr inbounds %struct.registered_buffer, ptr %45, i64 %47
  store ptr %48, ptr %6, align 8
  call void @llvm.lifetime.start.p0(i64 4, ptr %7) #9
  store i32 0, ptr %7, align 4
  call void @llvm.lifetime.start.p0(i64 8, ptr %8) #9
  %49 = load i32, ptr %5, align 4
  %50 = load i32, ptr @max_registered_buffers, align 4
  %51 = sub i32 %49, %50
  %52 = sext i32 %51 to i64
  %53 = mul i64 %52, 8304
  store i64 %53, ptr %8, align 8
  %54 = load ptr, ptr %6, align 8
  %55 = ptrtoint ptr %54 to i64
  %56 = and i64 %55, 7
  %57 = icmp eq i64 %56, 0
  br i1 %57, label %58, label %81

58:                                               ; preds = %44
  %59 = load i64, ptr %8, align 8
  %60 = and i64 %59, 7
  %61 = icmp eq i64 %60, 0
  br i1 %61, label %62, label %81

62:                                               ; preds = %58
  %63 = load i32, ptr %7, align 4
  %64 = icmp eq i32 %63, 0
  br i1 %64, label %65, label %81

65:                                               ; preds = %62
  %66 = load i64, ptr %8, align 8
  %67 = icmp ule i64 %66, 1024
  br i1 %67, label %68, label %81

68:                                               ; preds = %65
  call void @llvm.lifetime.start.p0(i64 8, ptr %9) #9
  %69 = load ptr, ptr %6, align 8
  store ptr %69, ptr %9, align 8
  call void @llvm.lifetime.start.p0(i64 8, ptr %10) #9
  %70 = load ptr, ptr %9, align 8
  %71 = load i64, ptr %8, align 8
  %72 = getelementptr inbounds nuw i8, ptr %70, i64 %71
  store ptr %72, ptr %10, align 8
  br label %73

73:                                               ; preds = %77, %68
  %74 = load ptr, ptr %9, align 8
  %75 = load ptr, ptr %10, align 8
  %76 = icmp ult ptr %74, %75
  br i1 %76, label %77, label %80

77:                                               ; preds = %73
  %78 = load ptr, ptr %9, align 8
  %79 = getelementptr inbounds nuw i64, ptr %78, i32 1
  store ptr %79, ptr %9, align 8
  store i64 0, ptr %78, align 8
  br label %73, !llvm.loop !6

80:                                               ; preds = %73
  call void @llvm.lifetime.end.p0(i64 8, ptr %10) #9
  call void @llvm.lifetime.end.p0(i64 8, ptr %9) #9
  br label %86

81:                                               ; preds = %65, %62, %58, %44
  %82 = load ptr, ptr %6, align 8
  %83 = load i32, ptr %7, align 4
  %84 = trunc i32 %83 to i8
  %85 = load i64, ptr %8, align 8
  call void @llvm.memset.p0.i64(ptr align 1 %82, i8 %84, i64 %85, i1 false)
  br label %86

86:                                               ; preds = %81, %80
  call void @llvm.lifetime.end.p0(i64 8, ptr %8) #9
  call void @llvm.lifetime.end.p0(i64 4, ptr %7) #9
  call void @llvm.lifetime.end.p0(i64 8, ptr %6) #9
  br label %87

87:                                               ; preds = %86
  br label %88

88:                                               ; preds = %87
  %89 = load i32, ptr %5, align 4
  store i32 %89, ptr @max_registered_buffers, align 4
  br label %90

90:                                               ; preds = %88, %32
  %91 = load i32, ptr %4, align 4
  %92 = load i32, ptr @max_rdatas, align 4
  %93 = icmp sgt i32 %91, %92
  br i1 %93, label %94, label %101

94:                                               ; preds = %90
  %95 = load ptr, ptr @rdatas, align 8
  %96 = load i32, ptr %4, align 4
  %97 = sext i32 %96 to i64
  %98 = mul i64 24, %97
  %99 = call ptr @repalloc(ptr noundef %95, i64 noundef %98)
  store ptr %99, ptr @rdatas, align 8
  %100 = load i32, ptr %4, align 4
  store i32 %100, ptr @max_rdatas, align 4
  br label %101

101:                                              ; preds = %94, %90
  call void @llvm.lifetime.end.p0(i64 4, ptr %5) #9
  ret void
}

; Function Attrs: nounwind uwtable
define dso_local void @log_newpages(ptr noundef %0, i32 noundef %1, i32 noundef %2, ptr noundef %3, ptr noundef %4, i1 noundef zeroext %5) #0 {
  %7 = alloca ptr, align 8
  %8 = alloca i32, align 4
  %9 = alloca i32, align 4
  %10 = alloca ptr, align 8
  %11 = alloca ptr, align 8
  %12 = alloca i8, align 1
  %13 = alloca i32, align 4
  %14 = alloca i64, align 8
  %15 = alloca i32, align 4
  %16 = alloca i32, align 4
  %17 = alloca i32, align 4
  %18 = alloca i32, align 4
  store ptr %0, ptr %7, align 8
  store i32 %1, ptr %8, align 4
  store i32 %2, ptr %9, align 4
  store ptr %3, ptr %10, align 8
  store ptr %4, ptr %11, align 8
  %19 = zext i1 %5 to i8
  store i8 %19, ptr %12, align 1
  call void @llvm.lifetime.start.p0(i64 4, ptr %13) #9
  call void @llvm.lifetime.start.p0(i64 8, ptr %14) #9
  call void @llvm.lifetime.start.p0(i64 4, ptr %15) #9
  call void @llvm.lifetime.start.p0(i64 4, ptr %16) #9
  store i32 1, ptr %13, align 4
  %20 = load i8, ptr %12, align 1, !range !4, !noundef !5
  %21 = trunc i8 %20 to i1
  br i1 %21, label %22, label %25

22:                                               ; preds = %6
  %23 = load i32, ptr %13, align 4
  %24 = or i32 %23, 8
  store i32 %24, ptr %13, align 4
  br label %25

25:                                               ; preds = %22, %6
  call void @XLogEnsureRecordSpace(i32 noundef 31, i32 noundef 0)
  store i32 0, ptr %15, align 4
  br label %26

26:                                               ; preds = %87, %25
  %27 = load i32, ptr %15, align 4
  %28 = load i32, ptr %9, align 4
  %29 = icmp slt i32 %27, %28
  br i1 %29, label %30, label %88

30:                                               ; preds = %26
  call void @llvm.lifetime.start.p0(i64 4, ptr %17) #9
  %31 = load i32, ptr %15, align 4
  store i32 %31, ptr %17, align 4
  call void @llvm.lifetime.start.p0(i64 4, ptr %18) #9
  call void @XLogBeginInsert()
  store i32 0, ptr %18, align 4
  br label %32

32:                                               ; preds = %41, %30
  %33 = load i32, ptr %18, align 4
  %34 = icmp slt i32 %33, 32
  br i1 %34, label %35, label %39

35:                                               ; preds = %32
  %36 = load i32, ptr %15, align 4
  %37 = load i32, ptr %9, align 4
  %38 = icmp slt i32 %36, %37
  br label %39

39:                                               ; preds = %35, %32
  %40 = phi i1 [ false, %32 ], [ %38, %35 ]
  br i1 %40, label %41, label %62

41:                                               ; preds = %39
  %42 = load i32, ptr %18, align 4
  %43 = trunc i32 %42 to i8
  %44 = load ptr, ptr %7, align 8
  %45 = load i32, ptr %8, align 4
  %46 = load ptr, ptr %10, align 8
  %47 = load i32, ptr %15, align 4
  %48 = sext i32 %47 to i64
  %49 = getelementptr inbounds i32, ptr %46, i64 %48
  %50 = load i32, ptr %49, align 4
  %51 = load ptr, ptr %11, align 8
  %52 = load i32, ptr %15, align 4
  %53 = sext i32 %52 to i64
  %54 = getelementptr inbounds ptr, ptr %51, i64 %53
  %55 = load ptr, ptr %54, align 8
  %56 = load i32, ptr %13, align 4
  %57 = trunc i32 %56 to i8
  call void @XLogRegisterBlock(i8 noundef zeroext %43, ptr noundef %44, i32 noundef %45, i32 noundef %50, ptr noundef %55, i8 noundef zeroext %57)
  %58 = load i32, ptr %15, align 4
  %59 = add i32 %58, 1
  store i32 %59, ptr %15, align 4
  %60 = load i32, ptr %18, align 4
  %61 = add i32 %60, 1
  store i32 %61, ptr %18, align 4
  br label %32, !llvm.loop !12

62:                                               ; preds = %39
  %63 = call i64 @XLogInsert(i8 noundef zeroext 0, i8 noundef zeroext -80)
  store i64 %63, ptr %14, align 8
  %64 = load i32, ptr %17, align 4
  store i32 %64, ptr %16, align 4
  br label %65

65:                                               ; preds = %84, %62
  %66 = load i32, ptr %16, align 4
  %67 = load i32, ptr %15, align 4
  %68 = icmp slt i32 %66, %67
  br i1 %68, label %69, label %87

69:                                               ; preds = %65
  %70 = load ptr, ptr %11, align 8
  %71 = load i32, ptr %16, align 4
  %72 = sext i32 %71 to i64
  %73 = getelementptr inbounds ptr, ptr %70, i64 %72
  %74 = load ptr, ptr %73, align 8
  %75 = call zeroext i1 @PageIsNew(ptr noundef %74)
  br i1 %75, label %83, label %76

76:                                               ; preds = %69
  %77 = load ptr, ptr %11, align 8
  %78 = load i32, ptr %16, align 4
  %79 = sext i32 %78 to i64
  %80 = getelementptr inbounds ptr, ptr %77, i64 %79
  %81 = load ptr, ptr %80, align 8
  %82 = load i64, ptr %14, align 8
  call void @PageSetLSN(ptr noundef %81, i64 noundef %82)
  br label %83

83:                                               ; preds = %76, %69
  br label %84

84:                                               ; preds = %83
  %85 = load i32, ptr %16, align 4
  %86 = add i32 %85, 1
  store i32 %86, ptr %16, align 4
  br label %65, !llvm.loop !13

87:                                               ; preds = %65
  call void @llvm.lifetime.end.p0(i64 4, ptr %18) #9
  call void @llvm.lifetime.end.p0(i64 4, ptr %17) #9
  br label %26, !llvm.loop !14

88:                                               ; preds = %26
  call void @llvm.lifetime.end.p0(i64 4, ptr %16) #9
  call void @llvm.lifetime.end.p0(i64 4, ptr %15) #9
  call void @llvm.lifetime.end.p0(i64 8, ptr %14) #9
  call void @llvm.lifetime.end.p0(i64 4, ptr %13) #9
  ret void
}