; Function Attrs: nounwind uwtable
define dso_local void @log_newpages(ptr noundef readonly captures(none) %0, i32 noundef %1, i32 noundef %2, ptr noundef readonly captures(none) %3, ptr noundef readonly captures(none) %4, i1 noundef zeroext %5) local_unnamed_addr #0 {
  %spec.select = select i1 %5, i8 9, i8 1
  %7 = load i32, ptr @max_registered_buffers, align 4
  %.not.i = icmp sgt i32 %7, 31
  br i1 %.not.i, label %35, label %8

8:                                                ; preds = %6
  %9 = load ptr, ptr @registered_buffers, align 8
  %10 = tail call ptr @repalloc(ptr noundef %9, i64 noundef 265728) #10
  %11 = ptrtoint ptr %10 to i64
  store ptr %10, ptr @registered_buffers, align 8
  %12 = load i32, ptr @max_registered_buffers, align 4
  %13 = zext nneg i32 %12 to i64
  %14 = getelementptr inbounds nuw %struct.registered_buffer, ptr %10, i64 %13
  %15 = sub nsw i32 32, %12
  %16 = sext i32 %15 to i64
  %17 = mul nsw i64 %16, 8304
  %18 = ptrtoint ptr %14 to i64
  %19 = and i64 %18, 7
  %20 = icmp eq i64 %19, 0
  %21 = icmp ult i64 %17, 1025
  %or.cond.i = select i1 %20, i1 %21, i1 false
  br i1 %or.cond.i, label %22, label %.loopexit.i.sink.split

22:                                               ; preds = %8
  %.not30.i = icmp eq i32 %12, 32
  br i1 %.not30.i, label %.loopexit.i, label %.lr.ph.preheader.i

.lr.ph.preheader.i:                               ; preds = %22
  %23 = add i64 %11, 265728
  %24 = mul nuw nsw i64 %13, 8304
  %25 = add i64 %23, %24
  %26 = sext i32 %12 to i64
  %.neg.i = mul nsw i64 %26, -8304
  %27 = add i64 %25, %.neg.i
  %28 = add i64 %11, 8
  %29 = add i64 %28, %24
  %umax.i = tail call i64 @llvm.umax.i64(i64 %27, i64 %29)
  %30 = xor i64 %11, -1
  %31 = sub i64 %30, %24
  %32 = add i64 %31, %umax.i
  %33 = and i64 %32, -8
  %34 = add i64 %33, 8
  br label %.loopexit.i.sink.split

.loopexit.i.sink.split:                           ; preds = %8, %.lr.ph.preheader.i
  %.sink = phi i64 [ %34, %.lr.ph.preheader.i ], [ %17, %8 ]
  tail call void @llvm.memset.p0.i64(ptr align 1 %14, i8 0, i64 %.sink, i1 false)
  br label %.loopexit.i

.loopexit.i:                                      ; preds = %.loopexit.i.sink.split, %22
  store i32 32, ptr @max_registered_buffers, align 4
  br label %35

35:                                               ; preds = %.loopexit.i, %6
  %36 = load i32, ptr @max_rdatas, align 4
  %37 = icmp slt i32 %36, 20
  br i1 %37, label %38, label %XLogEnsureRecordSpace.exit

38:                                               ; preds = %35
  %39 = load ptr, ptr @rdatas, align 8
  %40 = tail call ptr @repalloc(ptr noundef %39, i64 noundef 480) #10
  store ptr %40, ptr @rdatas, align 8
  store i32 20, ptr @max_rdatas, align 4
  br label %XLogEnsureRecordSpace.exit

XLogEnsureRecordSpace.exit:                       ; preds = %35, %38
  %41 = icmp sgt i32 %2, 0
  br i1 %41, label %.lr.ph36.preheader, label %._crit_edge

.lr.ph36.preheader:                               ; preds = %XLogEnsureRecordSpace.exit
  %42 = zext nneg i32 %2 to i64
  br label %.lr.ph36

.loopexit:                                        ; preds = %90, %75
  %43 = icmp sgt i32 %2, %77
  br i1 %43, label %.lr.ph36, label %._crit_edge, !llvm.loop !11

.lr.ph36:                                         ; preds = %.lr.ph36.preheader, %.loopexit
  %.02835 = phi i32 [ %77, %.loopexit ], [ 0, %.lr.ph36.preheader ]
  tail call void @XLogBeginInsert()
  %max_registered_block_id.promoted = load i32, ptr @max_registered_block_id, align 4
  %44 = load i32, ptr @max_registered_buffers, align 4
  %45 = load ptr, ptr @registered_buffers, align 8
  %46 = sext i32 %.02835 to i64
  %47 = tail call i32 @llvm.smax.i32(i32 %44, i32 0)
  %smax = zext nneg i32 %47 to i64
  br label %48

48:                                               ; preds = %.lr.ph36, %XLogRegisterBlock.exit
  %indvars.iv38 = phi i64 [ %46, %.lr.ph36 ], [ %indvars.iv.next39, %XLogRegisterBlock.exit ]
  %indvars.iv = phi i64 [ 0, %.lr.ph36 ], [ %indvars.iv.next, %XLogRegisterBlock.exit ]
  %49 = phi i32 [ %max_registered_block_id.promoted, %.lr.ph36 ], [ %59, %XLogRegisterBlock.exit ]
  %50 = getelementptr inbounds i32, ptr %3, i64 %indvars.iv38
  %51 = load i32, ptr %50, align 4
  %52 = getelementptr inbounds ptr, ptr %4, i64 %indvars.iv38
  %53 = load ptr, ptr %52, align 8
  %54 = sext i32 %49 to i64
  %.not.i30 = icmp slt i64 %indvars.iv, %54
  br i1 %.not.i30, label %58, label %55

55:                                               ; preds = %48
  %56 = trunc i64 %indvars.iv to i32
  %57 = add nuw nsw i32 %56, 1
  store i32 %57, ptr @max_registered_block_id, align 4
  br label %58

58:                                               ; preds = %55, %48
  %59 = phi i32 [ %57, %55 ], [ %49, %48 ]
  %exitcond.not = icmp eq i64 %indvars.iv, %smax
  br i1 %exitcond.not, label %60, label %XLogRegisterBlock.exit

60:                                               ; preds = %58
  %61 = tail call zeroext i1 @errstart_cold(i32 noundef 21, ptr noundef null) #11
  tail call void @llvm.assume(i1 %61)
  %62 = tail call i32 (ptr, ...) @errmsg_internal(ptr noundef nonnull @.str.4) #10
  tail call void @errfinish(ptr noundef nonnull @.str.1, i32 noundef 320, ptr noundef nonnull @__func__.XLogRegisterBlock) #10
  unreachable

XLogRegisterBlock.exit:                           ; preds = %58
  %63 = getelementptr inbounds nuw %struct.registered_buffer, ptr %45, i64 %indvars.iv
  %64 = getelementptr inbounds nuw i8, ptr %63, i64 4
  tail call void @llvm.memcpy.p0.p0.i64(ptr noundef nonnull align 4 dereferenceable(12) %64, ptr noundef nonnull readonly align 4 dereferenceable(12) %0, i64 12, i1 false)
  %65 = getelementptr inbounds nuw i8, ptr %63, i64 16
  store i32 %1, ptr %65, align 8
  %66 = getelementptr inbounds nuw i8, ptr %63, i64 20
  store i32 %51, ptr %66, align 4
  %67 = getelementptr inbounds nuw i8, ptr %63, i64 24
  store ptr %53, ptr %67, align 8
  %68 = getelementptr inbounds nuw i8, ptr %63, i64 1
  store i8 %spec.select, ptr %68, align 1
  %69 = getelementptr inbounds nuw i8, ptr %63, i64 40
  %70 = getelementptr inbounds nuw i8, ptr %63, i64 48
  store ptr %69, ptr %70, align 8
  %71 = getelementptr inbounds nuw i8, ptr %63, i64 32
  store i32 0, ptr %71, align 8
  store i8 1, ptr %63, align 8
  %indvars.iv.next39 = add nsw i64 %indvars.iv38, 1
  %indvars.iv.next = add nuw nsw i64 %indvars.iv, 1
  %72 = icmp samesign ult i64 %indvars.iv, 31
  %73 = icmp slt i64 %indvars.iv.next39, %42
  %74 = select i1 %72, i1 %73, i1 false
  br i1 %74, label %48, label %75, !llvm.loop !12

75:                                               ; preds = %XLogRegisterBlock.exit
  %76 = trunc nsw i64 %indvars.iv38 to i32
  %77 = trunc nsw i64 %indvars.iv.next39 to i32
  %78 = tail call i64 @XLogInsert(i8 noundef zeroext 0, i8 noundef zeroext -80)
  %.not = icmp sgt i32 %.02835, %76
  br i1 %.not, label %.loopexit, label %.lr.ph

.lr.ph:                                           ; preds = %75
  %79 = lshr i64 %78, 32
  %80 = trunc nuw i64 %79 to i32
  %81 = trunc i64 %78 to i32
  %sext = shl i64 %indvars.iv38, 32
  %82 = ashr exact i64 %sext, 32
  br label %83

83:                                               ; preds = %.lr.ph, %90
  %indvars.iv43 = phi i64 [ %46, %.lr.ph ], [ %indvars.iv.next44, %90 ]
  %84 = getelementptr inbounds ptr, ptr %4, i64 %indvars.iv43
  %85 = load ptr, ptr %84, align 8
  %86 = getelementptr i8, ptr %85, i64 14
  %.val = load i16, ptr %86, align 2
  %87 = icmp eq i16 %.val, 0
  br i1 %87, label %90, label %88

88:                                               ; preds = %83
  store i32 %80, ptr %85, align 4
  %89 = getelementptr inbounds nuw i8, ptr %85, i64 4
  store i32 %81, ptr %89, align 4
  br label %90

90:                                               ; preds = %83, %88
  %indvars.iv.next44 = add nsw i64 %indvars.iv43, 1
  %91 = icmp slt i64 %indvars.iv43, %82
  br i1 %91, label %83, label %.loopexit, !llvm.loop !13

._crit_edge:                                      ; preds = %.loopexit, %XLogEnsureRecordSpace.exit
  ret void
}